target datalayout = "e-m:e-p270:32:32-p271:32:32-p272:64:64-i64:64-i128:128-f80:128-n8:16:32:64-S128"
target triple = "x86_64-pc-linux-gnu"

%struct._zval_struct = type { %union._zend_value, %union.anon.3, %union.anon.6 }
%union._zend_value = type { i64 }
%union.anon.3 = type { i32 }
%union.anon.6 = type { i32 }
%struct._pcre_cache_entry = type { ptr, ptr, i32, i32, i32, i32, i32 }

; Function Attrs: nounwind uwtable
define internal i32 @pcre_clean_cache(ptr noundef %0, ptr noundef %1) #0 {
  %3 = alloca i32, align 4
  %4 = alloca ptr, align 8
  %5 = alloca ptr, align 8
  %6 = alloca ptr, align 8
  %7 = alloca ptr, align 8
  %8 = alloca i32, align 4
  store ptr %0, ptr %4, align 8, !tbaa !44
  store ptr %1, ptr %5, align 8, !tbaa !68
  call void @llvm.lifetime.start.p0(i64 8, ptr %6) #17
  %9 = load ptr, ptr %4, align 8, !tbaa !44
  %10 = getelementptr inbounds nuw %struct._zval_struct, ptr %9, i32 0, i32 0
  %11 = load ptr, ptr %10, align 8, !tbaa !45
  store ptr %11, ptr %6, align 8, !tbaa !64
  call void @llvm.lifetime.start.p0(i64 8, ptr %7) #17
  %12 = load ptr, ptr %5, align 8, !tbaa !68
  store ptr %12, ptr %7, align 8, !tbaa !70
  %13 = load ptr, ptr %6, align 8, !tbaa !64
  %14 = getelementptr inbounds nuw %struct._pcre_cache_entry, ptr %13, i32 0, i32 6
  %15 = load i32, ptr %14, align 8, !tbaa !62
  %16 = icmp ne i32 %15, 0
  br i1 %16, label %24, label %17

17:                                               ; preds = %2
  %18 = load ptr, ptr %7, align 8, !tbaa !70
  %19 = load i32, ptr %18, align 4, !tbaa !13
  %20 = add nsw i32 %19, -1
  store i32 %20, ptr %18, align 4, !tbaa !13
  %21 = icmp eq i32 %20, 0
  br i1 %21, label %22, label %23

22:                                               ; preds = %17
  store i32 3, ptr %3, align 4
  store i32 1, ptr %8, align 4
  br label %25

23:                                               ; preds = %17
  store i32 1, ptr %3, align 4
  store i32 1, ptr %8, align 4
  br label %25

24:                                               ; preds = %2
  store i32 0, ptr %3, align 4
  store i32 1, ptr %8, align 4
  br label %25

25:                                               ; preds = %24, %23, %22
  call void @llvm.lifetime.end.p0(i64 8, ptr %7) #17
  call void @llvm.lifetime.end.p0(i64 8, ptr %6) #17
  %26 = load i32, ptr %3, align 4
  ret i32 %26
}