; Function Attrs: mustprogress nofree norecurse nosync nounwind willreturn memory(read, argmem: readwrite, inaccessiblemem: none) uwtable
define internal range(i32 0, 4) i32 @pcre_clean_cache(ptr noundef readonly captures(none) %0, ptr noundef captures(none) %1) #5 {
  %3 = load ptr, ptr %0, align 8, !tbaa !11
  %4 = getelementptr inbounds nuw i8, ptr %3, i64 32
  %5 = load i32, ptr %4, align 8, !tbaa !63
  %.not = icmp eq i32 %5, 0
  br i1 %.not, label %6, label %10

6:                                                ; preds = %2
  %7 = load i32, ptr %1, align 4, !tbaa !51
  %8 = add nsw i32 %7, -1
  store i32 %8, ptr %1, align 4, !tbaa !51
  %9 = icmp eq i32 %8, 0
  %. = select i1 %9, i32 3, i32 1
  br label %10

10:                                               ; preds = %2, %6
  %.0 = phi i32 [ %., %6 ], [ 0, %2 ]
  ret i32 %.0
}